target datalayout = "e-m:e-p270:32:32-p271:32:32-p272:64:64-i64:64-i128:128-f80:128-n8:16:32:64-S128"
target triple = "x86_64-pc-linux-gnu"

%struct.Aig_Man_t_ = type { ptr, ptr, ptr, ptr, ptr, ptr, ptr, %struct.Aig_Obj_t_, i32, i32, i32, i32, i32, i32, [7 x i32], i32, ptr, i32, ptr, i32, ptr, i32, i32, i32, ptr, i32, i32, i32, i32, i32, ptr, ptr, i32, ptr, ptr, i32, ptr, ptr, i32, i32, i32, ptr, ptr, ptr, ptr, ptr, ptr, ptr, ptr, ptr, ptr, ptr, ptr, ptr, ptr, i32, ptr, ptr, ptr, ptr, i32, i64, i64, i64, ptr, ptr }
%struct.Aig_Obj_t_ = type { %union.anon, ptr, ptr, i64, i32, i32, %union.anon.0 }
%union.anon = type { ptr }
%union.anon.0 = type { ptr }

; Function Attrs: inlinehint nounwind uwtable
define internal i32 @Aig_IsComplement(ptr noundef %0) #3 {
  %2 = alloca ptr, align 8
  store ptr %0, ptr %2, align 8, !tbaa !8
  %3 = load ptr, ptr %2, align 8, !tbaa !8
  %4 = ptrtoint ptr %3 to i64
  %5 = and i64 %4, 1
  %6 = trunc i64 %5 to i32
  ret i32 %6
}

; Function Attrs: inlinehint nounwind uwtable
define internal i32 @Aig_ObjFaninC1(ptr noundef %0) #3 {
  %2 = alloca ptr, align 8
  store ptr %0, ptr %2, align 8, !tbaa !8
  %3 = load ptr, ptr %2, align 8, !tbaa !8
  %4 = getelementptr inbounds nuw %struct.Aig_Obj_t_, ptr %3, i32 0, i32 2
  %5 = load ptr, ptr %4, align 8, !tbaa !55
  %6 = call i32 @Aig_IsComplement(ptr noundef %5)
  ret i32 %6
}

; Function Attrs: inlinehint nounwind uwtable
define internal ptr @Aig_NotCond(ptr noundef %0, i32 noundef %1) #3 {
  %3 = alloca ptr, align 8
  %4 = alloca i32, align 4
  store ptr %0, ptr %3, align 8, !tbaa !8
  store i32 %1, ptr %4, align 4, !tbaa !29
  %5 = load ptr, ptr %3, align 8, !tbaa !8
  %6 = ptrtoint ptr %5 to i64
  %7 = load i32, ptr %4, align 4, !tbaa !29
  %8 = sext i32 %7 to i64
  %9 = xor i64 %6, %8
  %10 = inttoptr i64 %9 to ptr
  ret ptr %10
}

; Function Attrs: inlinehint nounwind uwtable
define internal i32 @Aig_ObjFaninC0(ptr noundef %0) #3 {
  %2 = alloca ptr, align 8
  store ptr %0, ptr %2, align 8, !tbaa !8
  %3 = load ptr, ptr %2, align 8, !tbaa !8
  %4 = getelementptr inbounds nuw %struct.Aig_Obj_t_, ptr %3, i32 0, i32 1
  %5 = load ptr, ptr %4, align 8, !tbaa !54
  %6 = call i32 @Aig_IsComplement(ptr noundef %5)
  ret i32 %6
}

; Function Attrs: inlinehint nounwind uwtable
define internal ptr @Aig_Regular(ptr noundef %0) #3 {
  %2 = alloca ptr, align 8
  store ptr %0, ptr %2, align 8, !tbaa !8
  %3 = load ptr, ptr %2, align 8, !tbaa !8
  %4 = ptrtoint ptr %3 to i64
  %5 = and i64 %4, -2
  %6 = inttoptr i64 %5 to ptr
  ret ptr %6
}

; Function Attrs: inlinehint nounwind uwtable
define internal i32 @Aig_ObjType(ptr noundef %0) #3 {
  %2 = alloca ptr, align 8
  store ptr %0, ptr %2, align 8, !tbaa !8
  %3 = load ptr, ptr %2, align 8, !tbaa !8
  %4 = getelementptr inbounds nuw %struct.Aig_Obj_t_, ptr %3, i32 0, i32 3
  %5 = load i64, ptr %4, align 8
  %6 = and i64 %5, 7
  %7 = trunc i64 %6 to i32
  ret i32 %7
}

; Function Attrs: inlinehint nounwind uwtable
define internal ptr @Aig_ObjChild1Copy(ptr noundef %0) #3 {
  %2 = alloca ptr, align 8
  store ptr %0, ptr %2, align 8, !tbaa !8
  %3 = load ptr, ptr %2, align 8, !tbaa !8
  %4 = call ptr @Aig_ObjFanin1(ptr noundef %3)
  %5 = icmp ne ptr %4, null
  br i1 %5, label %6, label %14

6:                                                ; preds = %1
  %7 = load ptr, ptr %2, align 8, !tbaa !8
  %8 = call ptr @Aig_ObjFanin1(ptr noundef %7)
  %9 = getelementptr inbounds nuw %struct.Aig_Obj_t_, ptr %8, i32 0, i32 6
  %10 = load ptr, ptr %9, align 8, !tbaa !28
  %11 = load ptr, ptr %2, align 8, !tbaa !8
  %12 = call i32 @Aig_ObjFaninC1(ptr noundef %11)
  %13 = call ptr @Aig_NotCond(ptr noundef %10, i32 noundef %12)
  br label %15

14:                                               ; preds = %1
  br label %15

15:                                               ; preds = %14, %6
  %16 = phi ptr [ %13, %6 ], [ null, %14 ]
  ret ptr %16
}

; Function Attrs: inlinehint nounwind uwtable
define internal ptr @Aig_ObjFanin1(ptr noundef %0) #3 {
  %2 = alloca ptr, align 8
  store ptr %0, ptr %2, align 8, !tbaa !8
  %3 = load ptr, ptr %2, align 8, !tbaa !8
  %4 = getelementptr inbounds nuw %struct.Aig_Obj_t_, ptr %3, i32 0, i32 2
  %5 = load ptr, ptr %4, align 8, !tbaa !55
  %6 = call ptr @Aig_Regular(ptr noundef %5)
  ret ptr %6
}

; Function Attrs: inlinehint nounwind uwtable
define internal ptr @Aig_ObjChild0Copy(ptr noundef %0) #3 {
  %2 = alloca ptr, align 8
  store ptr %0, ptr %2, align 8, !tbaa !8
  %3 = load ptr, ptr %2, align 8, !tbaa !8
  %4 = call ptr @Aig_ObjFanin0(ptr noundef %3)
  %5 = icmp ne ptr %4, null
  br i1 %5, label %6, label %14

6:                                                ; preds = %1
  %7 = load ptr, ptr %2, align 8, !tbaa !8
  %8 = call ptr @Aig_ObjFanin0(ptr noundef %7)
  %9 = getelementptr inbounds nuw %struct.Aig_Obj_t_, ptr %8, i32 0, i32 6
  %10 = load ptr, ptr %9, align 8, !tbaa !28
  %11 = load ptr, ptr %2, align 8, !tbaa !8
  %12 = call i32 @Aig_ObjFaninC0(ptr noundef %11)
  %13 = call ptr @Aig_NotCond(ptr noundef %10, i32 noundef %12)
  br label %15

14:                                               ; preds = %1
  br label %15

15:                                               ; preds = %14, %6
  %16 = phi ptr [ %13, %6 ], [ null, %14 ]
  ret ptr %16
}

; Function Attrs: inlinehint nounwind uwtable
define internal i32 @Aig_ObjIsBuf(ptr noundef %0) #3 {
  %2 = alloca ptr, align 8
  store ptr %0, ptr %2, align 8, !tbaa !8
  %3 = load ptr, ptr %2, align 8, !tbaa !8
  %4 = getelementptr inbounds nuw %struct.Aig_Obj_t_, ptr %3, i32 0, i32 3
  %5 = load i64, ptr %4, align 8
  %6 = and i64 %5, 7
  %7 = trunc i64 %6 to i32
  %8 = icmp eq i32 %7, 4
  %9 = zext i1 %8 to i32
  ret i32 %9
}

; Function Attrs: inlinehint nounwind uwtable
define internal ptr @Aig_ObjFanin0(ptr noundef %0) #3 {
  %2 = alloca ptr, align 8
  store ptr %0, ptr %2, align 8, !tbaa !8
  %3 = load ptr, ptr %2, align 8, !tbaa !8
  %4 = getelementptr inbounds nuw %struct.Aig_Obj_t_, ptr %3, i32 0, i32 1
  %5 = load ptr, ptr %4, align 8, !tbaa !54
  %6 = call ptr @Aig_Regular(ptr noundef %5)
  ret ptr %6
}

; Function Attrs: inlinehint nounwind uwtable
define internal ptr @Aig_ObjEquiv(ptr noundef %0, ptr noundef %1) #3 {
  %3 = alloca ptr, align 8
  %4 = alloca ptr, align 8
  store ptr %0, ptr %3, align 8, !tbaa !3
  store ptr %1, ptr %4, align 8, !tbaa !8
  %5 = load ptr, ptr %3, align 8, !tbaa !3
  %6 = getelementptr inbounds nuw %struct.Aig_Man_t_, ptr %5, i32 0, i32 30
  %7 = load ptr, ptr %6, align 8, !tbaa !69
  %8 = icmp ne ptr %7, null
  br i1 %8, label %9, label %19

9:                                                ; preds = %2
  %10 = load ptr, ptr %3, align 8, !tbaa !3
  %11 = getelementptr inbounds nuw %struct.Aig_Man_t_, ptr %10, i32 0, i32 30
  %12 = load ptr, ptr %11, align 8, !tbaa !69
  %13 = load ptr, ptr %4, align 8, !tbaa !8
  %14 = getelementptr inbounds nuw %struct.Aig_Obj_t_, ptr %13, i32 0, i32 5
  %15 = load i32, ptr %14, align 4, !tbaa !53
  %16 = sext i32 %15 to i64
  %17 = getelementptr inbounds ptr, ptr %12, i64 %16
  %18 = load ptr, ptr %17, align 8, !tbaa !8
  br label %20

19:                                               ; preds = %2
  br label %20

20:                                               ; preds = %19, %9
  %21 = phi ptr [ %18, %9 ], [ null, %19 ]
  ret ptr %21
}

; Function Attrs: nounwind uwtable
define ptr @Aig_ManDupDfs_rec(ptr noundef %0, ptr noundef %1, ptr noundef %2) #0 {
  %4 = alloca ptr, align 8
  %5 = alloca ptr, align 8
  %6 = alloca ptr, align 8
  %7 = alloca ptr, align 8
  %8 = alloca ptr, align 8
  %9 = alloca ptr, align 8
  %10 = alloca i32, align 4
  store ptr %0, ptr %5, align 8, !tbaa !3
  store ptr %1, ptr %6, align 8, !tbaa !3
  store ptr %2, ptr %7, align 8, !tbaa !8
  call void @llvm.lifetime.start.p0(i64 8, ptr %8) #11
  call void @llvm.lifetime.start.p0(i64 8, ptr %9) #11
  store ptr null, ptr %9, align 8, !tbaa !8
  %11 = load ptr, ptr %7, align 8, !tbaa !8
  %12 = getelementptr inbounds nuw %struct.Aig_Obj_t_, ptr %11, i32 0, i32 6
  %13 = load ptr, ptr %12, align 8, !tbaa !28
  %14 = icmp ne ptr %13, null
  br i1 %14, label %15, label %19

15:                                               ; preds = %3
  %16 = load ptr, ptr %7, align 8, !tbaa !8
  %17 = getelementptr inbounds nuw %struct.Aig_Obj_t_, ptr %16, i32 0, i32 6
  %18 = load ptr, ptr %17, align 8, !tbaa !28
  store ptr %18, ptr %4, align 8
  store i32 1, ptr %10, align 4
  br label %105

19:                                               ; preds = %3
  %20 = load ptr, ptr %6, align 8, !tbaa !3
  %21 = getelementptr inbounds nuw %struct.Aig_Man_t_, ptr %20, i32 0, i32 30
  %22 = load ptr, ptr %21, align 8, !tbaa !69
  %23 = icmp ne ptr %22, null
  br i1 %23, label %24, label %36

24:                                               ; preds = %19
  %25 = load ptr, ptr %6, align 8, !tbaa !3
  %26 = load ptr, ptr %7, align 8, !tbaa !8
  %27 = call ptr @Aig_ObjEquiv(ptr noundef %25, ptr noundef %26)
  %28 = icmp ne ptr %27, null
  br i1 %28, label %29, label %36

29:                                               ; preds = %24
  %30 = load ptr, ptr %5, align 8, !tbaa !3
  %31 = load ptr, ptr %6, align 8, !tbaa !3
  %32 = load ptr, ptr %6, align 8, !tbaa !3
  %33 = load ptr, ptr %7, align 8, !tbaa !8
  %34 = call ptr @Aig_ObjEquiv(ptr noundef %32, ptr noundef %33)
  %35 = call ptr @Aig_ManDupDfs_rec(ptr noundef %30, ptr noundef %31, ptr noundef %34)
  store ptr %35, ptr %9, align 8, !tbaa !8
  br label %36

36:                                               ; preds = %29, %24, %19
  %37 = load ptr, ptr %5, align 8, !tbaa !3
  %38 = load ptr, ptr %6, align 8, !tbaa !3
  %39 = load ptr, ptr %7, align 8, !tbaa !8
  %40 = call ptr @Aig_ObjFanin0(ptr noundef %39)
  %41 = call ptr @Aig_ManDupDfs_rec(ptr noundef %37, ptr noundef %38, ptr noundef %40)
  %42 = load ptr, ptr %7, align 8, !tbaa !8
  %43 = call i32 @Aig_ObjIsBuf(ptr noundef %42)
  %44 = icmp ne i32 %43, 0
  br i1 %44, label %45, label %50

45:                                               ; preds = %36
  %46 = load ptr, ptr %7, align 8, !tbaa !8
  %47 = call ptr @Aig_ObjChild0Copy(ptr noundef %46)
  %48 = load ptr, ptr %7, align 8, !tbaa !8
  %49 = getelementptr inbounds nuw %struct.Aig_Obj_t_, ptr %48, i32 0, i32 6
  store ptr %47, ptr %49, align 8, !tbaa !28
  store ptr %47, ptr %4, align 8
  store i32 1, ptr %10, align 4
  br label %105

50:                                               ; preds = %36
  %51 = load ptr, ptr %5, align 8, !tbaa !3
  %52 = load ptr, ptr %6, align 8, !tbaa !3
  %53 = load ptr, ptr %7, align 8, !tbaa !8
  %54 = call ptr @Aig_ObjFanin1(ptr noundef %53)
  %55 = call ptr @Aig_ManDupDfs_rec(ptr noundef %51, ptr noundef %52, ptr noundef %54)
  %56 = load ptr, ptr %5, align 8, !tbaa !3
  %57 = load ptr, ptr %7, align 8, !tbaa !8
  %58 = call ptr @Aig_ObjChild0Copy(ptr noundef %57)
  %59 = load ptr, ptr %7, align 8, !tbaa !8
  %60 = call ptr @Aig_ObjChild1Copy(ptr noundef %59)
  %61 = load ptr, ptr %7, align 8, !tbaa !8
  %62 = call i32 @Aig_ObjType(ptr noundef %61)
  %63 = call ptr @Aig_Oper(ptr noundef %56, ptr noundef %58, ptr noundef %60, i32 noundef %62)
  store ptr %63, ptr %8, align 8, !tbaa !8
  %64 = load ptr, ptr %9, align 8, !tbaa !8
  %65 = icmp ne ptr %64, null
  br i1 %65, label %66, label %101

66:                                               ; preds = %50
  %67 = load ptr, ptr %5, align 8, !tbaa !3
  %68 = getelementptr inbounds nuw %struct.Aig_Man_t_, ptr %67, i32 0, i32 30
  %69 = load ptr, ptr %68, align 8, !tbaa !69
  %70 = icmp ne ptr %69, null
  br i1 %70, label %71, label %83

71:                                               ; preds = %66
  %72 = load ptr, ptr %9, align 8, !tbaa !8
  %73 = call ptr @Aig_Regular(ptr noundef %72)
  %74 = load ptr, ptr %5, align 8, !tbaa !3
  %75 = getelementptr inbounds nuw %struct.Aig_Man_t_, ptr %74, i32 0, i32 30
  %76 = load ptr, ptr %75, align 8, !tbaa !69
  %77 = load ptr, ptr %8, align 8, !tbaa !8
  %78 = call ptr @Aig_Regular(ptr noundef %77)
  %79 = getelementptr inbounds nuw %struct.Aig_Obj_t_, ptr %78, i32 0, i32 5
  %80 = load i32, ptr %79, align 4, !tbaa !53
  %81 = sext i32 %80 to i64
  %82 = getelementptr inbounds ptr, ptr %76, i64 %81
  store ptr %73, ptr %82, align 8, !tbaa !8
  br label %83

83:                                               ; preds = %71, %66
  %84 = load ptr, ptr %5, align 8, !tbaa !3
  %85 = getelementptr inbounds nuw %struct.Aig_Man_t_, ptr %84, i32 0, i32 31
  %86 = load ptr, ptr %85, align 8, !tbaa !70
  %87 = icmp ne ptr %86, null
  br i1 %87, label %88, label %100

88:                                               ; preds = %83
  %89 = load ptr, ptr %8, align 8, !tbaa !8
  %90 = call ptr @Aig_Regular(ptr noundef %89)
  %91 = load ptr, ptr %5, align 8, !tbaa !3
  %92 = getelementptr inbounds nuw %struct.Aig_Man_t_, ptr %91, i32 0, i32 31
  %93 = load ptr, ptr %92, align 8, !tbaa !70
  %94 = load ptr, ptr %9, align 8, !tbaa !8
  %95 = call ptr @Aig_Regular(ptr noundef %94)
  %96 = getelementptr inbounds nuw %struct.Aig_Obj_t_, ptr %95, i32 0, i32 5
  %97 = load i32, ptr %96, align 4, !tbaa !53
  %98 = sext i32 %97 to i64
  %99 = getelementptr inbounds ptr, ptr %93, i64 %98
  store ptr %90, ptr %99, align 8, !tbaa !8
  br label %100

100:                                              ; preds = %88, %83
  br label %101

101:                                              ; preds = %100, %50
  %102 = load ptr, ptr %8, align 8, !tbaa !8
  %103 = load ptr, ptr %7, align 8, !tbaa !8
  %104 = getelementptr inbounds nuw %struct.Aig_Obj_t_, ptr %103, i32 0, i32 6
  store ptr %102, ptr %104, align 8, !tbaa !28
  store ptr %102, ptr %4, align 8
  store i32 1, ptr %10, align 4
  br label %105

105:                                              ; preds = %101, %45, %15
  call void @llvm.lifetime.end.p0(i64 8, ptr %9) #11
  call void @llvm.lifetime.end.p0(i64 8, ptr %8) #11
  %106 = load ptr, ptr %4, align 8
  ret ptr %106
}