; Function Attrs: nounwind uwtable
define ptr @Aig_ManDupDfs_rec(ptr noundef %0, ptr noundef %1, ptr noundef captures(none) %2) local_unnamed_addr #0 {
  %4 = getelementptr inbounds nuw i8, ptr %2, i64 40
  %5 = load ptr, ptr %4, align 8, !tbaa !34
  %.not = icmp eq ptr %5, null
  br i1 %.not, label %6, label %93

6:                                                ; preds = %3
  %7 = getelementptr inbounds nuw i8, ptr %1, i64 248
  %8 = load ptr, ptr %7, align 8, !tbaa !65
  %.not36 = icmp eq ptr %8, null
  br i1 %.not36, label %15, label %Aig_ObjEquiv.exit

Aig_ObjEquiv.exit:                                ; preds = %6
  %9 = getelementptr inbounds nuw i8, ptr %2, i64 36
  %10 = load i32, ptr %9, align 4, !tbaa !46
  %11 = sext i32 %10 to i64
  %12 = getelementptr inbounds ptr, ptr %8, i64 %11
  %13 = load ptr, ptr %12, align 8, !tbaa !66
  %.not37 = icmp eq ptr %13, null
  br i1 %.not37, label %15, label %Aig_ObjEquiv.exit51

Aig_ObjEquiv.exit51:                              ; preds = %Aig_ObjEquiv.exit
  %14 = tail call ptr @Aig_ManDupDfs_rec(ptr noundef %0, ptr noundef nonnull %1, ptr noundef nonnull %13)
  br label %15

15:                                               ; preds = %Aig_ObjEquiv.exit51, %Aig_ObjEquiv.exit, %6
  %.0 = phi ptr [ %14, %Aig_ObjEquiv.exit51 ], [ null, %Aig_ObjEquiv.exit ], [ null, %6 ]
  %16 = getelementptr i8, ptr %2, i64 8
  %.val42 = load ptr, ptr %16, align 8, !tbaa !41
  %17 = ptrtoint ptr %.val42 to i64
  %18 = and i64 %17, -2
  %19 = inttoptr i64 %18 to ptr
  %20 = tail call ptr @Aig_ManDupDfs_rec(ptr noundef %0, ptr noundef nonnull %1, ptr noundef %19)
  %21 = getelementptr i8, ptr %2, i64 24
  %.val = load i64, ptr %21, align 8
  %22 = and i64 %.val, 7
  %.not56 = icmp eq i64 %22, 4
  br i1 %.not56, label %23, label %34

23:                                               ; preds = %15
  %.val44 = load ptr, ptr %16, align 8, !tbaa !41
  %24 = ptrtoint ptr %.val44 to i64
  %25 = and i64 %24, -2
  %.not.i52 = icmp eq i64 %25, 0
  br i1 %.not.i52, label %.sink.split, label %26

26:                                               ; preds = %23
  %27 = inttoptr i64 %25 to ptr
  %28 = getelementptr inbounds nuw i8, ptr %27, i64 40
  %29 = load ptr, ptr %28, align 8, !tbaa !34
  %30 = and i64 %24, 1
  %31 = ptrtoint ptr %29 to i64
  %32 = xor i64 %30, %31
  %33 = inttoptr i64 %32 to ptr
  br label %.sink.split

34:                                               ; preds = %15
  %35 = getelementptr i8, ptr %2, i64 16
  %.val45 = load ptr, ptr %35, align 8, !tbaa !42
  %36 = ptrtoint ptr %.val45 to i64
  %37 = and i64 %36, -2
  %38 = inttoptr i64 %37 to ptr
  %39 = tail call ptr @Aig_ManDupDfs_rec(ptr noundef %0, ptr noundef nonnull %1, ptr noundef %38)
  %.val43 = load ptr, ptr %16, align 8, !tbaa !41
  %40 = ptrtoint ptr %.val43 to i64
  %41 = and i64 %40, -2
  %.not.i53 = icmp eq i64 %41, 0
  br i1 %.not.i53, label %Aig_ObjChild0Copy.exit54, label %42

42:                                               ; preds = %34
  %43 = inttoptr i64 %41 to ptr
  %44 = getelementptr inbounds nuw i8, ptr %43, i64 40
  %45 = load ptr, ptr %44, align 8, !tbaa !34
  %46 = and i64 %40, 1
  %47 = ptrtoint ptr %45 to i64
  %48 = xor i64 %46, %47
  %49 = inttoptr i64 %48 to ptr
  br label %Aig_ObjChild0Copy.exit54

Aig_ObjChild0Copy.exit54:                         ; preds = %34, %42
  %50 = phi ptr [ %49, %42 ], [ null, %34 ]
  %.val46 = load ptr, ptr %35, align 8, !tbaa !42
  %51 = ptrtoint ptr %.val46 to i64
  %52 = and i64 %51, -2
  %.not.i55 = icmp eq i64 %52, 0
  br i1 %.not.i55, label %Aig_ObjChild1Copy.exit, label %53

53:                                               ; preds = %Aig_ObjChild0Copy.exit54
  %54 = inttoptr i64 %52 to ptr
  %55 = getelementptr inbounds nuw i8, ptr %54, i64 40
  %56 = load ptr, ptr %55, align 8, !tbaa !34
  %57 = and i64 %51, 1
  %58 = ptrtoint ptr %56 to i64
  %59 = xor i64 %57, %58
  %60 = inttoptr i64 %59 to ptr
  br label %Aig_ObjChild1Copy.exit

Aig_ObjChild1Copy.exit:                           ; preds = %Aig_ObjChild0Copy.exit54, %53
  %61 = phi ptr [ %60, %53 ], [ null, %Aig_ObjChild0Copy.exit54 ]
  %.val47 = load i64, ptr %21, align 8
  %62 = trunc i64 %.val47 to i32
  %63 = and i32 %62, 7
  %64 = tail call ptr @Aig_Oper(ptr noundef %0, ptr noundef %50, ptr noundef %61, i32 noundef %63) #11
  %.not39 = icmp eq ptr %.0, null
  br i1 %.not39, label %.sink.split, label %65

65:                                               ; preds = %Aig_ObjChild1Copy.exit
  %66 = getelementptr inbounds nuw i8, ptr %0, i64 248
  %67 = load ptr, ptr %66, align 8, !tbaa !65
  %.not40 = icmp eq ptr %67, null
  br i1 %.not40, label %79, label %68

68:                                               ; preds = %65
  %69 = ptrtoint ptr %.0 to i64
  %70 = and i64 %69, -2
  %71 = inttoptr i64 %70 to ptr
  %72 = ptrtoint ptr %64 to i64
  %73 = and i64 %72, -2
  %74 = inttoptr i64 %73 to ptr
  %75 = getelementptr inbounds nuw i8, ptr %74, i64 36
  %76 = load i32, ptr %75, align 4, !tbaa !46
  %77 = sext i32 %76 to i64
  %78 = getelementptr inbounds ptr, ptr %67, i64 %77
  store ptr %71, ptr %78, align 8, !tbaa !66
  br label %79

79:                                               ; preds = %68, %65
  %80 = getelementptr inbounds nuw i8, ptr %0, i64 256
  %81 = load ptr, ptr %80, align 8, !tbaa !67
  %.not41 = icmp eq ptr %81, null
  br i1 %.not41, label %.sink.split, label %82

82:                                               ; preds = %79
  %83 = ptrtoint ptr %64 to i64
  %84 = and i64 %83, -2
  %85 = inttoptr i64 %84 to ptr
  %86 = ptrtoint ptr %.0 to i64
  %87 = and i64 %86, -2
  %88 = inttoptr i64 %87 to ptr
  %89 = getelementptr inbounds nuw i8, ptr %88, i64 36
  %90 = load i32, ptr %89, align 4, !tbaa !46
  %91 = sext i32 %90 to i64
  %92 = getelementptr inbounds ptr, ptr %81, i64 %91
  store ptr %85, ptr %92, align 8, !tbaa !66
  br label %.sink.split

.sink.split:                                      ; preds = %Aig_ObjChild1Copy.exit, %82, %79, %26, %23
  %.sink = phi ptr [ %33, %26 ], [ null, %23 ], [ %64, %79 ], [ %64, %82 ], [ %64, %Aig_ObjChild1Copy.exit ]
  store ptr %.sink, ptr %4, align 8, !tbaa !34
  br label %93

93:                                               ; preds = %.sink.split, %3
  %.034 = phi ptr [ %5, %3 ], [ %.sink, %.sink.split ]
  ret ptr %.034
}